
Proyecto2.elf:     file format elf32-avr

Sections:
Idx Name          Size      VMA       LMA       File off  Algn
  0 .data         00000274  00800100  000007ac  00000840  2**0
                  CONTENTS, ALLOC, LOAD, DATA
  1 .text         000007ac  00000000  00000000  00000094  2**1
                  CONTENTS, ALLOC, LOAD, READONLY, CODE
  2 .bss          0000001d  00800374  00800374  00000ab4  2**0
                  ALLOC
  3 .comment      00000030  00000000  00000000  00000ab4  2**0
                  CONTENTS, READONLY
  4 .note.gnu.avr.deviceinfo 00000040  00000000  00000000  00000ae4  2**2
                  CONTENTS, READONLY
  5 .debug_aranges 00000058  00000000  00000000  00000b24  2**0
                  CONTENTS, READONLY, DEBUGGING
  6 .debug_info   00001621  00000000  00000000  00000b7c  2**0
                  CONTENTS, READONLY, DEBUGGING
  7 .debug_abbrev 00000843  00000000  00000000  0000219d  2**0
                  CONTENTS, READONLY, DEBUGGING
  8 .debug_line   0000077a  00000000  00000000  000029e0  2**0
                  CONTENTS, READONLY, DEBUGGING
  9 .debug_frame  000000b8  00000000  00000000  0000315c  2**2
                  CONTENTS, READONLY, DEBUGGING
 10 .debug_str    000004a5  00000000  00000000  00003214  2**0
                  CONTENTS, READONLY, DEBUGGING
 11 .debug_loc    000004f2  00000000  00000000  000036b9  2**0
                  CONTENTS, READONLY, DEBUGGING
 12 .debug_ranges 00000048  00000000  00000000  00003bab  2**0
                  CONTENTS, READONLY, DEBUGGING

Disassembly of section .text:

00000000 <__vectors>:
   0:	0c 94 34 00 	jmp	0x68	; 0x68 <__ctors_end>
   4:	0c 94 51 00 	jmp	0xa2	; 0xa2 <__bad_interrupt>
   8:	0c 94 51 00 	jmp	0xa2	; 0xa2 <__bad_interrupt>
   c:	0c 94 51 00 	jmp	0xa2	; 0xa2 <__bad_interrupt>
  10:	0c 94 51 00 	jmp	0xa2	; 0xa2 <__bad_interrupt>
  14:	0c 94 51 00 	jmp	0xa2	; 0xa2 <__bad_interrupt>
  18:	0c 94 51 00 	jmp	0xa2	; 0xa2 <__bad_interrupt>
  1c:	0c 94 51 00 	jmp	0xa2	; 0xa2 <__bad_interrupt>
  20:	0c 94 51 00 	jmp	0xa2	; 0xa2 <__bad_interrupt>
  24:	0c 94 51 00 	jmp	0xa2	; 0xa2 <__bad_interrupt>
  28:	0c 94 51 00 	jmp	0xa2	; 0xa2 <__bad_interrupt>
  2c:	0c 94 51 00 	jmp	0xa2	; 0xa2 <__bad_interrupt>
  30:	0c 94 51 00 	jmp	0xa2	; 0xa2 <__bad_interrupt>
  34:	0c 94 51 00 	jmp	0xa2	; 0xa2 <__bad_interrupt>
  38:	0c 94 51 00 	jmp	0xa2	; 0xa2 <__bad_interrupt>
  3c:	0c 94 51 00 	jmp	0xa2	; 0xa2 <__bad_interrupt>
  40:	0c 94 51 00 	jmp	0xa2	; 0xa2 <__bad_interrupt>
  44:	0c 94 51 00 	jmp	0xa2	; 0xa2 <__bad_interrupt>
  48:	0c 94 51 00 	jmp	0xa2	; 0xa2 <__bad_interrupt>
  4c:	0c 94 51 00 	jmp	0xa2	; 0xa2 <__bad_interrupt>
  50:	0c 94 51 00 	jmp	0xa2	; 0xa2 <__bad_interrupt>
  54:	0c 94 51 00 	jmp	0xa2	; 0xa2 <__bad_interrupt>
  58:	0c 94 51 00 	jmp	0xa2	; 0xa2 <__bad_interrupt>
  5c:	0c 94 51 00 	jmp	0xa2	; 0xa2 <__bad_interrupt>
  60:	0c 94 51 00 	jmp	0xa2	; 0xa2 <__bad_interrupt>
  64:	0c 94 51 00 	jmp	0xa2	; 0xa2 <__bad_interrupt>

00000068 <__ctors_end>:
  68:	11 24       	eor	r1, r1
  6a:	1f be       	out	0x3f, r1	; 63
  6c:	cf ef       	ldi	r28, 0xFF	; 255
  6e:	d8 e0       	ldi	r29, 0x08	; 8
  70:	de bf       	out	0x3e, r29	; 62
  72:	cd bf       	out	0x3d, r28	; 61

00000074 <__do_copy_data>:
  74:	13 e0       	ldi	r17, 0x03	; 3
  76:	a0 e0       	ldi	r26, 0x00	; 0
  78:	b1 e0       	ldi	r27, 0x01	; 1
  7a:	ec ea       	ldi	r30, 0xAC	; 172
  7c:	f7 e0       	ldi	r31, 0x07	; 7
  7e:	02 c0       	rjmp	.+4      	; 0x84 <__do_copy_data+0x10>
  80:	05 90       	lpm	r0, Z+
  82:	0d 92       	st	X+, r0
  84:	a4 37       	cpi	r26, 0x74	; 116
  86:	b1 07       	cpc	r27, r17
  88:	d9 f7       	brne	.-10     	; 0x80 <__do_copy_data+0xc>

0000008a <__do_clear_bss>:
  8a:	23 e0       	ldi	r18, 0x03	; 3
  8c:	a4 e7       	ldi	r26, 0x74	; 116
  8e:	b3 e0       	ldi	r27, 0x03	; 3
  90:	01 c0       	rjmp	.+2      	; 0x94 <.do_clear_bss_start>

00000092 <.do_clear_bss_loop>:
  92:	1d 92       	st	X+, r1

00000094 <.do_clear_bss_start>:
  94:	a1 39       	cpi	r26, 0x91	; 145
  96:	b2 07       	cpc	r27, r18
  98:	e1 f7       	brne	.-8      	; 0x92 <.do_clear_bss_loop>
  9a:	0e 94 a5 02 	call	0x54a	; 0x54a <main>
  9e:	0c 94 d4 03 	jmp	0x7a8	; 0x7a8 <_exit>

000000a2 <__bad_interrupt>:
  a2:	0c 94 00 00 	jmp	0	; 0x0 <__vectors>

000000a6 <setup>:
// ====================================================================
// NON-Interrupt subroutines
//SETUP
void setup(void) {
	// Configurar todo el Puerto D como salida
	DDRD = 0xFF;  // Todos los pines del Puerto D como salidas
  a6:	8f ef       	ldi	r24, 0xFF	; 255
  a8:	8a b9       	out	0x0a, r24	; 10
	
	// Configurar ADC para leer ADC6 y ADC7
	// Habilitar ADC y seleccionar prescaler de 128 (para 16MHz -> 125kHz)
	ADCSRA = (1 << ADEN) | (1 << ADPS2) | (1 << ADPS1) | (1 << ADPS0);
  aa:	87 e8       	ldi	r24, 0x87	; 135
  ac:	80 93 7a 00 	sts	0x007A, r24	; 0x80007a <__TEXT_REGION_LENGTH__+0x7f807a>
	
	// Configurar referencia: A
	ADMUX = (1 << REFS0);  
  b0:	80 e4       	ldi	r24, 0x40	; 64
  b2:	80 93 7c 00 	sts	0x007C, r24	; 0x80007c <__TEXT_REGION_LENGTH__+0x7f807c>
	
	// Configurar USART a 9600 baudios (para 16MHz)
	UBRR0H = 0;
  b6:	10 92 c5 00 	sts	0x00C5, r1	; 0x8000c5 <__TEXT_REGION_LENGTH__+0x7f80c5>
	UBRR0L = 103;  // 16MHz / (16 * 9600) - 1 = 103
  ba:	87 e6       	ldi	r24, 0x67	; 103
  bc:	80 93 c4 00 	sts	0x00C4, r24	; 0x8000c4 <__TEXT_REGION_LENGTH__+0x7f80c4>

	// Habilitar transmisor y receptor
	UCSR0B = (1 << TXEN0) | (1 << RXEN0);
  c0:	88 e1       	ldi	r24, 0x18	; 24
  c2:	80 93 c1 00 	sts	0x00C1, r24	; 0x8000c1 <__TEXT_REGION_LENGTH__+0x7f80c1>

	// Configurar formato: 8 bits, 1 stop bit, sin paridad
	UCSR0C = (1 << UCSZ01) | (1 << UCSZ00);
  c6:	86 e0       	ldi	r24, 0x06	; 6
  c8:	80 93 c2 00 	sts	0x00C2, r24	; 0x8000c2 <__TEXT_REGION_LENGTH__+0x7f80c2>
  cc:	08 95       	ret

000000ce <leerADC>:
	
}
//LEER ADC
uint16_t leerADC(uint8_t canal) {
	// Limpiar los bits de selección de canal (MUX[2:0]) y seleccionar el nuevo canal
	ADMUX = (ADMUX & 0xF8) | (canal & 0x07);
  ce:	ec e7       	ldi	r30, 0x7C	; 124
  d0:	f0 e0       	ldi	r31, 0x00	; 0
  d2:	90 81       	ld	r25, Z
  d4:	98 7f       	andi	r25, 0xF8	; 248
  d6:	87 70       	andi	r24, 0x07	; 7
  d8:	89 2b       	or	r24, r25
  da:	80 83       	st	Z, r24
	
	// Iniciar conversión
	ADCSRA |= (1 << ADSC);
  dc:	ea e7       	ldi	r30, 0x7A	; 122
  de:	f0 e0       	ldi	r31, 0x00	; 0
  e0:	80 81       	ld	r24, Z
  e2:	80 64       	ori	r24, 0x40	; 64
  e4:	80 83       	st	Z, r24
	
	// Esperar a que termine la conversión (ADSC se limpia automáticamente)
	while (ADCSRA & (1 << ADSC));
  e6:	80 91 7a 00 	lds	r24, 0x007A	; 0x80007a <__TEXT_REGION_LENGTH__+0x7f807a>
  ea:	86 fd       	sbrc	r24, 6
  ec:	fc cf       	rjmp	.-8      	; 0xe6 <leerADC+0x18>
	
	// Retornar el valor de 10 bits
	return ADC;
  ee:	80 91 78 00 	lds	r24, 0x0078	; 0x800078 <__TEXT_REGION_LENGTH__+0x7f8078>
  f2:	90 91 79 00 	lds	r25, 0x0079	; 0x800079 <__TEXT_REGION_LENGTH__+0x7f8079>
} 
  f6:	08 95       	ret

000000f8 <enviarChar>:
void enviarChar(char c) {
	while (!(UCSR0A & (1 << UDRE0)));
  f8:	90 91 c0 00 	lds	r25, 0x00C0	; 0x8000c0 <__TEXT_REGION_LENGTH__+0x7f80c0>
  fc:	95 ff       	sbrs	r25, 5
  fe:	fc cf       	rjmp	.-8      	; 0xf8 <enviarChar>
	UDR0 = c;
 100:	80 93 c6 00 	sts	0x00C6, r24	; 0x8000c6 <__TEXT_REGION_LENGTH__+0x7f80c6>
 104:	08 95       	ret

00000106 <enviarString>:
}
void enviarString(char* str) {
 106:	cf 93       	push	r28
 108:	df 93       	push	r29
 10a:	ec 01       	movw	r28, r24
	while (*str) {
 10c:	03 c0       	rjmp	.+6      	; 0x114 <enviarString+0xe>
		enviarChar(*str++);
 10e:	21 96       	adiw	r28, 0x01	; 1
 110:	0e 94 7c 00 	call	0xf8	; 0xf8 <enviarChar>
void enviarChar(char c) {
	while (!(UCSR0A & (1 << UDRE0)));
	UDR0 = c;
}
void enviarString(char* str) {
	while (*str) {
 114:	88 81       	ld	r24, Y
 116:	81 11       	cpse	r24, r1
 118:	fa cf       	rjmp	.-12     	; 0x10e <enviarString+0x8>
		enviarChar(*str++);
	}
}
 11a:	df 91       	pop	r29
 11c:	cf 91       	pop	r28
 11e:	08 95       	ret

00000120 <limpiarTerminal>:
void limpiarTerminal(void) {
 120:	cf 93       	push	r28
 122:	df 93       	push	r29
	// Enviar saltos de línea para "limpiar la" pantalla
	for (int i = 0; i < 10; i++) {
 124:	c0 e0       	ldi	r28, 0x00	; 0
 126:	d0 e0       	ldi	r29, 0x00	; 0
 128:	05 c0       	rjmp	.+10     	; 0x134 <limpiarTerminal+0x14>
		enviarString("\r\n");
 12a:	80 e6       	ldi	r24, 0x60	; 96
 12c:	92 e0       	ldi	r25, 0x02	; 2
 12e:	0e 94 83 00 	call	0x106	; 0x106 <enviarString>
		enviarChar(*str++);
	}
}
void limpiarTerminal(void) {
	// Enviar saltos de línea para "limpiar la" pantalla
	for (int i = 0; i < 10; i++) {
 132:	21 96       	adiw	r28, 0x01	; 1
 134:	ca 30       	cpi	r28, 0x0A	; 10
 136:	d1 05       	cpc	r29, r1
 138:	c4 f3       	brlt	.-16     	; 0x12a <limpiarTerminal+0xa>
		enviarString("\r\n");
	}
}
 13a:	df 91       	pop	r29
 13c:	cf 91       	pop	r28
 13e:	08 95       	ret

00000140 <manejarComandosSerial>:
void manejarComandosSerial(void) {
 140:	cf 93       	push	r28
 142:	df 93       	push	r29
	if (UCSR0A & (1 << RXC0)) {
 144:	80 91 c0 00 	lds	r24, 0x00C0	; 0x8000c0 <__TEXT_REGION_LENGTH__+0x7f80c0>
 148:	88 23       	and	r24, r24
 14a:	0c f0       	brlt	.+2      	; 0x14e <manejarComandosSerial+0xe>
 14c:	9e c1       	rjmp	.+828    	; 0x48a <__EEPROM_REGION_LENGTH__+0x8a>
		char comando = UDR0;
 14e:	80 91 c6 00 	lds	r24, 0x00C6	; 0x8000c6 <__TEXT_REGION_LENGTH__+0x7f80c6>
		
		// Si estamos en modo edición
		if (editando == 1) {
 152:	90 91 77 03 	lds	r25, 0x0377	; 0x800377 <editando>
 156:	91 30       	cpi	r25, 0x01	; 1
 158:	09 f0       	breq	.+2      	; 0x15c <manejarComandosSerial+0x1c>
 15a:	16 c1       	rjmp	.+556    	; 0x388 <manejarComandosSerial+0x248>
			if (pasoEdicion == 0) {
 15c:	90 91 75 03 	lds	r25, 0x0375	; 0x800375 <pasoEdicion>
 160:	91 11       	cpse	r25, r1
 162:	1d c0       	rjmp	.+58     	; 0x19e <manejarComandosSerial+0x5e>
				// Esperando selección del pot (1-4)
				if (comando >= '1' && comando <= '4') {
 164:	9f ec       	ldi	r25, 0xCF	; 207
 166:	98 0f       	add	r25, r24
 168:	94 30       	cpi	r25, 0x04	; 4
 16a:	a0 f4       	brcc	.+40     	; 0x194 <manejarComandosSerial+0x54>
					potSeleccionado = comando - '0';
 16c:	80 53       	subi	r24, 0x30	; 48
 16e:	80 93 76 03 	sts	0x0376, r24	; 0x800376 <potSeleccionado>
					enviarString("\r\nIngrese el nuevo valor (0-100): ");
 172:	80 e0       	ldi	r24, 0x00	; 0
 174:	91 e0       	ldi	r25, 0x01	; 1
 176:	0e 94 83 00 	call	0x106	; 0x106 <enviarString>
					pasoEdicion = 1;
 17a:	81 e0       	ldi	r24, 0x01	; 1
 17c:	80 93 75 03 	sts	0x0375, r24	; 0x800375 <pasoEdicion>
					indiceNumero = 0;
 180:	10 92 74 03 	sts	0x0374, r1	; 0x800374 <__data_end>
					memset(numeroBuffer, 0, sizeof(numeroBuffer));
 184:	84 e0       	ldi	r24, 0x04	; 4
 186:	ed e8       	ldi	r30, 0x8D	; 141
 188:	f3 e0       	ldi	r31, 0x03	; 3
 18a:	df 01       	movw	r26, r30
 18c:	1d 92       	st	X+, r1
 18e:	8a 95       	dec	r24
 190:	e9 f7       	brne	.-6      	; 0x18c <manejarComandosSerial+0x4c>
 192:	7b c1       	rjmp	.+758    	; 0x48a <__EEPROM_REGION_LENGTH__+0x8a>
					} else {
					enviarString("\r\nOpcion invalida. Seleccione un pot (1-4): ");
 194:	83 e2       	ldi	r24, 0x23	; 35
 196:	91 e0       	ldi	r25, 0x01	; 1
 198:	0e 94 83 00 	call	0x106	; 0x106 <enviarString>
 19c:	76 c1       	rjmp	.+748    	; 0x48a <__EEPROM_REGION_LENGTH__+0x8a>
				}
			}
			else if (pasoEdicion == 1) {
 19e:	91 30       	cpi	r25, 0x01	; 1
 1a0:	09 f0       	breq	.+2      	; 0x1a4 <manejarComandosSerial+0x64>
 1a2:	73 c1       	rjmp	.+742    	; 0x48a <__EEPROM_REGION_LENGTH__+0x8a>
				// Esperando el valor numérico
				if (comando >= '0' && comando <= '9') {
 1a4:	90 ed       	ldi	r25, 0xD0	; 208
 1a6:	98 0f       	add	r25, r24
 1a8:	9a 30       	cpi	r25, 0x0A	; 10
 1aa:	08 f0       	brcs	.+2      	; 0x1ae <manejarComandosSerial+0x6e>
 1ac:	6b c0       	rjmp	.+214    	; 0x284 <manejarComandosSerial+0x144>
					if (indiceNumero < 3) {
 1ae:	e0 91 74 03 	lds	r30, 0x0374	; 0x800374 <__data_end>
 1b2:	e3 30       	cpi	r30, 0x03	; 3
 1b4:	50 f4       	brcc	.+20     	; 0x1ca <manejarComandosSerial+0x8a>
						numeroBuffer[indiceNumero++] = comando;
 1b6:	91 e0       	ldi	r25, 0x01	; 1
 1b8:	9e 0f       	add	r25, r30
 1ba:	90 93 74 03 	sts	0x0374, r25	; 0x800374 <__data_end>
 1be:	f0 e0       	ldi	r31, 0x00	; 0
 1c0:	e3 57       	subi	r30, 0x73	; 115
 1c2:	fc 4f       	sbci	r31, 0xFC	; 252
 1c4:	80 83       	st	Z, r24
						enviarChar(comando);
 1c6:	0e 94 7c 00 	call	0xf8	; 0xf8 <enviarChar>
					}
					// Si ya tenemos 3 dígitos (máximo 100), aceptamos automáticamente
					if (indiceNumero == 3) {
 1ca:	80 91 74 03 	lds	r24, 0x0374	; 0x800374 <__data_end>
 1ce:	83 30       	cpi	r24, 0x03	; 3
 1d0:	09 f0       	breq	.+2      	; 0x1d4 <manejarComandosSerial+0x94>
 1d2:	5b c1       	rjmp	.+694    	; 0x48a <__EEPROM_REGION_LENGTH__+0x8a>
						uint8_t nuevoValor = atoi(numeroBuffer);
 1d4:	8d e8       	ldi	r24, 0x8D	; 141
 1d6:	93 e0       	ldi	r25, 0x03	; 3
 1d8:	0e 94 79 03 	call	0x6f2	; 0x6f2 <atoi>
 1dc:	ec 01       	movw	r28, r24
						if (nuevoValor >= 0 && nuevoValor <= 100) {
 1de:	85 36       	cpi	r24, 0x65	; 101
 1e0:	08 f0       	brcs	.+2      	; 0x1e4 <manejarComandosSerial+0xa4>
 1e2:	53 c1       	rjmp	.+678    	; 0x48a <__EEPROM_REGION_LENGTH__+0x8a>
							switch(potSeleccionado) {
 1e4:	80 91 76 03 	lds	r24, 0x0376	; 0x800376 <potSeleccionado>
 1e8:	82 30       	cpi	r24, 0x02	; 2
 1ea:	81 f0       	breq	.+32     	; 0x20c <manejarComandosSerial+0xcc>
 1ec:	18 f4       	brcc	.+6      	; 0x1f4 <manejarComandosSerial+0xb4>
 1ee:	81 30       	cpi	r24, 0x01	; 1
 1f0:	31 f0       	breq	.+12     	; 0x1fe <manejarComandosSerial+0xbe>
 1f2:	20 c0       	rjmp	.+64     	; 0x234 <manejarComandosSerial+0xf4>
 1f4:	83 30       	cpi	r24, 0x03	; 3
 1f6:	89 f0       	breq	.+34     	; 0x21a <manejarComandosSerial+0xda>
 1f8:	84 30       	cpi	r24, 0x04	; 4
 1fa:	b1 f0       	breq	.+44     	; 0x228 <manejarComandosSerial+0xe8>
 1fc:	1b c0       	rjmp	.+54     	; 0x234 <manejarComandosSerial+0xf4>
								case 1: pot1 = nuevoValor; break;
 1fe:	ce 01       	movw	r24, r28
 200:	99 27       	eor	r25, r25
 202:	90 93 82 03 	sts	0x0382, r25	; 0x800382 <pot1+0x1>
 206:	80 93 81 03 	sts	0x0381, r24	; 0x800381 <pot1>
 20a:	14 c0       	rjmp	.+40     	; 0x234 <manejarComandosSerial+0xf4>
								case 2: pot2 = nuevoValor; break;
 20c:	ce 01       	movw	r24, r28
 20e:	99 27       	eor	r25, r25
 210:	90 93 80 03 	sts	0x0380, r25	; 0x800380 <pot2+0x1>
 214:	80 93 7f 03 	sts	0x037F, r24	; 0x80037f <pot2>
 218:	0d c0       	rjmp	.+26     	; 0x234 <manejarComandosSerial+0xf4>
								case 3: pot3 = nuevoValor; break;
 21a:	ce 01       	movw	r24, r28
 21c:	99 27       	eor	r25, r25
 21e:	90 93 7e 03 	sts	0x037E, r25	; 0x80037e <pot3+0x1>
 222:	80 93 7d 03 	sts	0x037D, r24	; 0x80037d <pot3>
 226:	06 c0       	rjmp	.+12     	; 0x234 <manejarComandosSerial+0xf4>
								case 4: pot4 = nuevoValor; break;
 228:	ce 01       	movw	r24, r28
 22a:	99 27       	eor	r25, r25
 22c:	90 93 7c 03 	sts	0x037C, r25	; 0x80037c <pot4+0x1>
 230:	80 93 7b 03 	sts	0x037B, r24	; 0x80037b <pot4>
							}
							enviarString("\r\nPot ");
 234:	80 e5       	ldi	r24, 0x50	; 80
 236:	91 e0       	ldi	r25, 0x01	; 1
 238:	0e 94 83 00 	call	0x106	; 0x106 <enviarString>
							enviarString(itoa(potSeleccionado, buffer, 10));
 23c:	80 91 76 03 	lds	r24, 0x0376	; 0x800376 <potSeleccionado>
    } else if (__radix < 2 || __radix > 36) {
	*__s = 0;
	return __s;
    } else {
	extern char *__itoa_ncheck (int, char *, unsigned char);
	return __itoa_ncheck (__val, __s, __radix);
 240:	4a e0       	ldi	r20, 0x0A	; 10
 242:	63 e8       	ldi	r22, 0x83	; 131
 244:	73 e0       	ldi	r23, 0x03	; 3
 246:	90 e0       	ldi	r25, 0x00	; 0
 248:	0e 94 97 03 	call	0x72e	; 0x72e <__itoa_ncheck>
 24c:	0e 94 83 00 	call	0x106	; 0x106 <enviarString>
							enviarString(" actualizado a: ");
 250:	87 e5       	ldi	r24, 0x57	; 87
 252:	91 e0       	ldi	r25, 0x01	; 1
 254:	0e 94 83 00 	call	0x106	; 0x106 <enviarString>
 258:	4a e0       	ldi	r20, 0x0A	; 10
 25a:	63 e8       	ldi	r22, 0x83	; 131
 25c:	73 e0       	ldi	r23, 0x03	; 3
 25e:	8c 2f       	mov	r24, r28
 260:	90 e0       	ldi	r25, 0x00	; 0
 262:	0e 94 97 03 	call	0x72e	; 0x72e <__itoa_ncheck>
							enviarString(itoa(nuevoValor, buffer, 10));
 266:	0e 94 83 00 	call	0x106	; 0x106 <enviarString>
							enviarString("\r\n");
 26a:	80 e6       	ldi	r24, 0x60	; 96
 26c:	92 e0       	ldi	r25, 0x02	; 2
 26e:	0e 94 83 00 	call	0x106	; 0x106 <enviarString>
							
							editando = 0;
 272:	10 92 77 03 	sts	0x0377, r1	; 0x800377 <editando>
							pasoEdicion = 0;
 276:	10 92 75 03 	sts	0x0375, r1	; 0x800375 <pasoEdicion>
							Terminal = 0;
 27a:	10 92 79 03 	sts	0x0379, r1	; 0x800379 <Terminal+0x1>
 27e:	10 92 78 03 	sts	0x0378, r1	; 0x800378 <Terminal>
 282:	03 c1       	rjmp	.+518    	; 0x48a <__EEPROM_REGION_LENGTH__+0x8a>
						}
					}
				}
				else if (comando == '\r') {  // Enter
 284:	8d 30       	cpi	r24, 0x0D	; 13
 286:	09 f0       	breq	.+2      	; 0x28a <manejarComandosSerial+0x14a>
 288:	00 c1       	rjmp	.+512    	; 0x48a <__EEPROM_REGION_LENGTH__+0x8a>
					if (indiceNumero > 0) {
 28a:	80 91 74 03 	lds	r24, 0x0374	; 0x800374 <__data_end>
 28e:	88 23       	and	r24, r24
 290:	09 f4       	brne	.+2      	; 0x294 <manejarComandosSerial+0x154>
 292:	69 c0       	rjmp	.+210    	; 0x366 <manejarComandosSerial+0x226>
						uint8_t nuevoValor = atoi(numeroBuffer);
 294:	8d e8       	ldi	r24, 0x8D	; 141
 296:	93 e0       	ldi	r25, 0x03	; 3
 298:	0e 94 79 03 	call	0x6f2	; 0x6f2 <atoi>
 29c:	ec 01       	movw	r28, r24
						if (nuevoValor >= 0 && nuevoValor <= 100) {
 29e:	85 36       	cpi	r24, 0x65	; 101
 2a0:	08 f0       	brcs	.+2      	; 0x2a4 <manejarComandosSerial+0x164>
 2a2:	50 c0       	rjmp	.+160    	; 0x344 <manejarComandosSerial+0x204>
							switch(potSeleccionado) {
 2a4:	80 91 76 03 	lds	r24, 0x0376	; 0x800376 <potSeleccionado>
 2a8:	82 30       	cpi	r24, 0x02	; 2
 2aa:	81 f0       	breq	.+32     	; 0x2cc <manejarComandosSerial+0x18c>
 2ac:	18 f4       	brcc	.+6      	; 0x2b4 <manejarComandosSerial+0x174>
 2ae:	81 30       	cpi	r24, 0x01	; 1
 2b0:	31 f0       	breq	.+12     	; 0x2be <manejarComandosSerial+0x17e>
 2b2:	20 c0       	rjmp	.+64     	; 0x2f4 <manejarComandosSerial+0x1b4>
 2b4:	83 30       	cpi	r24, 0x03	; 3
 2b6:	89 f0       	breq	.+34     	; 0x2da <manejarComandosSerial+0x19a>
 2b8:	84 30       	cpi	r24, 0x04	; 4
 2ba:	b1 f0       	breq	.+44     	; 0x2e8 <manejarComandosSerial+0x1a8>
 2bc:	1b c0       	rjmp	.+54     	; 0x2f4 <manejarComandosSerial+0x1b4>
								case 1: pot1 = nuevoValor; break;
 2be:	ce 01       	movw	r24, r28
 2c0:	99 27       	eor	r25, r25
 2c2:	90 93 82 03 	sts	0x0382, r25	; 0x800382 <pot1+0x1>
 2c6:	80 93 81 03 	sts	0x0381, r24	; 0x800381 <pot1>
 2ca:	14 c0       	rjmp	.+40     	; 0x2f4 <manejarComandosSerial+0x1b4>
								case 2: pot2 = nuevoValor; break;
 2cc:	ce 01       	movw	r24, r28
 2ce:	99 27       	eor	r25, r25
 2d0:	90 93 80 03 	sts	0x0380, r25	; 0x800380 <pot2+0x1>
 2d4:	80 93 7f 03 	sts	0x037F, r24	; 0x80037f <pot2>
 2d8:	0d c0       	rjmp	.+26     	; 0x2f4 <manejarComandosSerial+0x1b4>
								case 3: pot3 = nuevoValor; break;
 2da:	ce 01       	movw	r24, r28
 2dc:	99 27       	eor	r25, r25
 2de:	90 93 7e 03 	sts	0x037E, r25	; 0x80037e <pot3+0x1>
 2e2:	80 93 7d 03 	sts	0x037D, r24	; 0x80037d <pot3>
 2e6:	06 c0       	rjmp	.+12     	; 0x2f4 <manejarComandosSerial+0x1b4>
								case 4: pot4 = nuevoValor; break;
 2e8:	ce 01       	movw	r24, r28
 2ea:	99 27       	eor	r25, r25
 2ec:	90 93 7c 03 	sts	0x037C, r25	; 0x80037c <pot4+0x1>
 2f0:	80 93 7b 03 	sts	0x037B, r24	; 0x80037b <pot4>
							}
							enviarString("\r\nPot ");
 2f4:	80 e5       	ldi	r24, 0x50	; 80
 2f6:	91 e0       	ldi	r25, 0x01	; 1
 2f8:	0e 94 83 00 	call	0x106	; 0x106 <enviarString>
							enviarString(itoa(potSeleccionado, buffer, 10));
 2fc:	80 91 76 03 	lds	r24, 0x0376	; 0x800376 <potSeleccionado>
 300:	4a e0       	ldi	r20, 0x0A	; 10
 302:	63 e8       	ldi	r22, 0x83	; 131
 304:	73 e0       	ldi	r23, 0x03	; 3
 306:	90 e0       	ldi	r25, 0x00	; 0
 308:	0e 94 97 03 	call	0x72e	; 0x72e <__itoa_ncheck>
 30c:	0e 94 83 00 	call	0x106	; 0x106 <enviarString>
							enviarString(" actualizado a: ");
 310:	87 e5       	ldi	r24, 0x57	; 87
 312:	91 e0       	ldi	r25, 0x01	; 1
 314:	0e 94 83 00 	call	0x106	; 0x106 <enviarString>
 318:	4a e0       	ldi	r20, 0x0A	; 10
 31a:	63 e8       	ldi	r22, 0x83	; 131
 31c:	73 e0       	ldi	r23, 0x03	; 3
 31e:	8c 2f       	mov	r24, r28
 320:	90 e0       	ldi	r25, 0x00	; 0
 322:	0e 94 97 03 	call	0x72e	; 0x72e <__itoa_ncheck>
							enviarString(itoa(nuevoValor, buffer, 10));
 326:	0e 94 83 00 	call	0x106	; 0x106 <enviarString>
							enviarString("\r\n");
 32a:	80 e6       	ldi	r24, 0x60	; 96
 32c:	92 e0       	ldi	r25, 0x02	; 2
 32e:	0e 94 83 00 	call	0x106	; 0x106 <enviarString>
							
							editando = 0;
 332:	10 92 77 03 	sts	0x0377, r1	; 0x800377 <editando>
							pasoEdicion = 0;
 336:	10 92 75 03 	sts	0x0375, r1	; 0x800375 <pasoEdicion>
							Terminal = 0;
 33a:	10 92 79 03 	sts	0x0379, r1	; 0x800379 <Terminal+0x1>
 33e:	10 92 78 03 	sts	0x0378, r1	; 0x800378 <Terminal>
 342:	a3 c0       	rjmp	.+326    	; 0x48a <__EEPROM_REGION_LENGTH__+0x8a>
							} else {
							enviarString("\r\nValor invalido. Debe ser entre 0 y 100\r\n");
 344:	88 e6       	ldi	r24, 0x68	; 104
 346:	91 e0       	ldi	r25, 0x01	; 1
 348:	0e 94 83 00 	call	0x106	; 0x106 <enviarString>
							enviarString("Presione Enter para continuar...\r\n");
 34c:	83 e9       	ldi	r24, 0x93	; 147
 34e:	91 e0       	ldi	r25, 0x01	; 1
 350:	0e 94 83 00 	call	0x106	; 0x106 <enviarString>
							editando = 0;
 354:	10 92 77 03 	sts	0x0377, r1	; 0x800377 <editando>
							pasoEdicion = 0;
 358:	10 92 75 03 	sts	0x0375, r1	; 0x800375 <pasoEdicion>
							Terminal = 0;
 35c:	10 92 79 03 	sts	0x0379, r1	; 0x800379 <Terminal+0x1>
 360:	10 92 78 03 	sts	0x0378, r1	; 0x800378 <Terminal>
 364:	92 c0       	rjmp	.+292    	; 0x48a <__EEPROM_REGION_LENGTH__+0x8a>
						}
						} else {
						enviarString("\r\nNo ingreso ningun valor\r\n");
 366:	86 eb       	ldi	r24, 0xB6	; 182
 368:	91 e0       	ldi	r25, 0x01	; 1
 36a:	0e 94 83 00 	call	0x106	; 0x106 <enviarString>
						enviarString("Presione Enter para continuar...\r\n");
 36e:	83 e9       	ldi	r24, 0x93	; 147
 370:	91 e0       	ldi	r25, 0x01	; 1
 372:	0e 94 83 00 	call	0x106	; 0x106 <enviarString>
						editando = 0;
 376:	10 92 77 03 	sts	0x0377, r1	; 0x800377 <editando>
						pasoEdicion = 0;
 37a:	10 92 75 03 	sts	0x0375, r1	; 0x800375 <pasoEdicion>
						Terminal = 0;
 37e:	10 92 79 03 	sts	0x0379, r1	; 0x800379 <Terminal+0x1>
 382:	10 92 78 03 	sts	0x0378, r1	; 0x800378 <Terminal>
 386:	81 c0       	rjmp	.+258    	; 0x48a <__EEPROM_REGION_LENGTH__+0x8a>
			}
			return;
		}
		
		// Comandos normales (no en edición)
		if (comando == '1') {
 388:	81 33       	cpi	r24, 0x31	; 49
 38a:	59 f4       	brne	.+22     	; 0x3a2 <manejarComandosSerial+0x262>
			Manual = 0;
 38c:	10 92 7a 03 	sts	0x037A, r1	; 0x80037a <Manual>
			enviarString("\r\nCambiando a MODO MANUAL\r\n");
 390:	82 ed       	ldi	r24, 0xD2	; 210
 392:	91 e0       	ldi	r25, 0x01	; 1
 394:	0e 94 83 00 	call	0x106	; 0x106 <enviarString>
			Terminal = 0;
 398:	10 92 79 03 	sts	0x0379, r1	; 0x800379 <Terminal+0x1>
 39c:	10 92 78 03 	sts	0x0378, r1	; 0x800378 <Terminal>
 3a0:	74 c0       	rjmp	.+232    	; 0x48a <__EEPROM_REGION_LENGTH__+0x8a>
		}
		else if (comando == '2') {
 3a2:	82 33       	cpi	r24, 0x32	; 50
 3a4:	61 f4       	brne	.+24     	; 0x3be <manejarComandosSerial+0x27e>
			Manual = 1;
 3a6:	81 e0       	ldi	r24, 0x01	; 1
 3a8:	80 93 7a 03 	sts	0x037A, r24	; 0x80037a <Manual>
			enviarString("\r\nCambiando a MODO AUTOMATICO\r\n");
 3ac:	8e ee       	ldi	r24, 0xEE	; 238
 3ae:	91 e0       	ldi	r25, 0x01	; 1
 3b0:	0e 94 83 00 	call	0x106	; 0x106 <enviarString>
			Terminal = 0;
 3b4:	10 92 79 03 	sts	0x0379, r1	; 0x800379 <Terminal+0x1>
 3b8:	10 92 78 03 	sts	0x0378, r1	; 0x800378 <Terminal>
 3bc:	66 c0       	rjmp	.+204    	; 0x48a <__EEPROM_REGION_LENGTH__+0x8a>
		}
		else if (comando == '3' && Manual == 1) {
 3be:	83 33       	cpi	r24, 0x33	; 51
 3c0:	09 f0       	breq	.+2      	; 0x3c4 <manejarComandosSerial+0x284>
 3c2:	63 c0       	rjmp	.+198    	; 0x48a <__EEPROM_REGION_LENGTH__+0x8a>
 3c4:	80 91 7a 03 	lds	r24, 0x037A	; 0x80037a <Manual>
 3c8:	81 30       	cpi	r24, 0x01	; 1
 3ca:	09 f0       	breq	.+2      	; 0x3ce <manejarComandosSerial+0x28e>
 3cc:	5e c0       	rjmp	.+188    	; 0x48a <__EEPROM_REGION_LENGTH__+0x8a>
			editando = 1;
 3ce:	80 93 77 03 	sts	0x0377, r24	; 0x800377 <editando>
			pasoEdicion = 0;
 3d2:	10 92 75 03 	sts	0x0375, r1	; 0x800375 <pasoEdicion>
			limpiarTerminal();
 3d6:	0e 94 90 00 	call	0x120	; 0x120 <limpiarTerminal>
			enviarString("\r\n===== EDITAR VALORES =====\r\n");
 3da:	8e e0       	ldi	r24, 0x0E	; 14
 3dc:	92 e0       	ldi	r25, 0x02	; 2
 3de:	0e 94 83 00 	call	0x106	; 0x106 <enviarString>
			enviarString("Seleccione el pot a editar:\r\n");
 3e2:	8d e2       	ldi	r24, 0x2D	; 45
 3e4:	92 e0       	ldi	r25, 0x02	; 2
 3e6:	0e 94 83 00 	call	0x106	; 0x106 <enviarString>
			enviarString("1 - Pot 1 (actual: ");
 3ea:	8b e4       	ldi	r24, 0x4B	; 75
 3ec:	92 e0       	ldi	r25, 0x02	; 2
 3ee:	0e 94 83 00 	call	0x106	; 0x106 <enviarString>
 3f2:	4a e0       	ldi	r20, 0x0A	; 10
 3f4:	63 e8       	ldi	r22, 0x83	; 131
 3f6:	73 e0       	ldi	r23, 0x03	; 3
 3f8:	80 91 81 03 	lds	r24, 0x0381	; 0x800381 <pot1>
 3fc:	90 91 82 03 	lds	r25, 0x0382	; 0x800382 <pot1+0x1>
 400:	0e 94 97 03 	call	0x72e	; 0x72e <__itoa_ncheck>
			enviarString(itoa(pot1, buffer, 10));
 404:	0e 94 83 00 	call	0x106	; 0x106 <enviarString>
			enviarString(")\r\n");
 408:	8f e5       	ldi	r24, 0x5F	; 95
 40a:	92 e0       	ldi	r25, 0x02	; 2
 40c:	0e 94 83 00 	call	0x106	; 0x106 <enviarString>
			enviarString("2 - Pot 2 (actual: ");
 410:	83 e6       	ldi	r24, 0x63	; 99
 412:	92 e0       	ldi	r25, 0x02	; 2
 414:	0e 94 83 00 	call	0x106	; 0x106 <enviarString>
 418:	4a e0       	ldi	r20, 0x0A	; 10
 41a:	63 e8       	ldi	r22, 0x83	; 131
 41c:	73 e0       	ldi	r23, 0x03	; 3
 41e:	80 91 7f 03 	lds	r24, 0x037F	; 0x80037f <pot2>
 422:	90 91 80 03 	lds	r25, 0x0380	; 0x800380 <pot2+0x1>
 426:	0e 94 97 03 	call	0x72e	; 0x72e <__itoa_ncheck>
			enviarString(itoa(pot2, buffer, 10));
 42a:	0e 94 83 00 	call	0x106	; 0x106 <enviarString>
			enviarString(")\r\n");
 42e:	8f e5       	ldi	r24, 0x5F	; 95
 430:	92 e0       	ldi	r25, 0x02	; 2
 432:	0e 94 83 00 	call	0x106	; 0x106 <enviarString>
			enviarString("3 - Pot 3 (actual: ");
 436:	87 e7       	ldi	r24, 0x77	; 119
 438:	92 e0       	ldi	r25, 0x02	; 2
 43a:	0e 94 83 00 	call	0x106	; 0x106 <enviarString>
 43e:	4a e0       	ldi	r20, 0x0A	; 10
 440:	63 e8       	ldi	r22, 0x83	; 131
 442:	73 e0       	ldi	r23, 0x03	; 3
 444:	80 91 7d 03 	lds	r24, 0x037D	; 0x80037d <pot3>
 448:	90 91 7e 03 	lds	r25, 0x037E	; 0x80037e <pot3+0x1>
 44c:	0e 94 97 03 	call	0x72e	; 0x72e <__itoa_ncheck>
			enviarString(itoa(pot3, buffer, 10));
 450:	0e 94 83 00 	call	0x106	; 0x106 <enviarString>
			enviarString(")\r\n");
 454:	8f e5       	ldi	r24, 0x5F	; 95
 456:	92 e0       	ldi	r25, 0x02	; 2
 458:	0e 94 83 00 	call	0x106	; 0x106 <enviarString>
			enviarString("4 - Pot 4 (actual: ");
 45c:	8b e8       	ldi	r24, 0x8B	; 139
 45e:	92 e0       	ldi	r25, 0x02	; 2
 460:	0e 94 83 00 	call	0x106	; 0x106 <enviarString>
 464:	4a e0       	ldi	r20, 0x0A	; 10
 466:	63 e8       	ldi	r22, 0x83	; 131
 468:	73 e0       	ldi	r23, 0x03	; 3
 46a:	80 91 7b 03 	lds	r24, 0x037B	; 0x80037b <pot4>
 46e:	90 91 7c 03 	lds	r25, 0x037C	; 0x80037c <pot4+0x1>
 472:	0e 94 97 03 	call	0x72e	; 0x72e <__itoa_ncheck>
			enviarString(itoa(pot4, buffer, 10));
 476:	0e 94 83 00 	call	0x106	; 0x106 <enviarString>
			enviarString(")\r\n");
 47a:	8f e5       	ldi	r24, 0x5F	; 95
 47c:	92 e0       	ldi	r25, 0x02	; 2
 47e:	0e 94 83 00 	call	0x106	; 0x106 <enviarString>
			enviarString("\r\nOpcion: ");
 482:	8f e9       	ldi	r24, 0x9F	; 159
 484:	92 e0       	ldi	r25, 0x02	; 2
 486:	0e 94 83 00 	call	0x106	; 0x106 <enviarString>
		}
	}
}
 48a:	df 91       	pop	r29
 48c:	cf 91       	pop	r28
 48e:	08 95       	ret

00000490 <mostrarMenuAuto>:

void mostrarMenuAuto(void) {
	enviarString("\r\n======================\r\n");
 490:	8a ea       	ldi	r24, 0xAA	; 170
 492:	92 e0       	ldi	r25, 0x02	; 2
 494:	0e 94 83 00 	call	0x106	; 0x106 <enviarString>
	enviarString("\r\nMODO AUTOMATICO\r\n");
 498:	85 ec       	ldi	r24, 0xC5	; 197
 49a:	92 e0       	ldi	r25, 0x02	; 2
 49c:	0e 94 83 00 	call	0x106	; 0x106 <enviarString>
	enviarString("\r\n======================\r\n");
 4a0:	8a ea       	ldi	r24, 0xAA	; 170
 4a2:	92 e0       	ldi	r25, 0x02	; 2
 4a4:	0e 94 83 00 	call	0x106	; 0x106 <enviarString>
	enviarString("Pot 1: ");
 4a8:	89 ed       	ldi	r24, 0xD9	; 217
 4aa:	92 e0       	ldi	r25, 0x02	; 2
 4ac:	0e 94 83 00 	call	0x106	; 0x106 <enviarString>
 4b0:	4a e0       	ldi	r20, 0x0A	; 10
 4b2:	63 e8       	ldi	r22, 0x83	; 131
 4b4:	73 e0       	ldi	r23, 0x03	; 3
 4b6:	80 91 81 03 	lds	r24, 0x0381	; 0x800381 <pot1>
 4ba:	90 91 82 03 	lds	r25, 0x0382	; 0x800382 <pot1+0x1>
 4be:	0e 94 97 03 	call	0x72e	; 0x72e <__itoa_ncheck>
	enviarString(itoa(pot1, buffer, 10));
 4c2:	0e 94 83 00 	call	0x106	; 0x106 <enviarString>
	enviarString("\r\nPot 2: ");
 4c6:	81 ee       	ldi	r24, 0xE1	; 225
 4c8:	92 e0       	ldi	r25, 0x02	; 2
 4ca:	0e 94 83 00 	call	0x106	; 0x106 <enviarString>
 4ce:	4a e0       	ldi	r20, 0x0A	; 10
 4d0:	63 e8       	ldi	r22, 0x83	; 131
 4d2:	73 e0       	ldi	r23, 0x03	; 3
 4d4:	80 91 7f 03 	lds	r24, 0x037F	; 0x80037f <pot2>
 4d8:	90 91 80 03 	lds	r25, 0x0380	; 0x800380 <pot2+0x1>
 4dc:	0e 94 97 03 	call	0x72e	; 0x72e <__itoa_ncheck>
	enviarString(itoa(pot2, buffer, 10));
 4e0:	0e 94 83 00 	call	0x106	; 0x106 <enviarString>
	enviarString("\r\nPot 3: ");
 4e4:	8b ee       	ldi	r24, 0xEB	; 235
 4e6:	92 e0       	ldi	r25, 0x02	; 2
 4e8:	0e 94 83 00 	call	0x106	; 0x106 <enviarString>
 4ec:	4a e0       	ldi	r20, 0x0A	; 10
 4ee:	63 e8       	ldi	r22, 0x83	; 131
 4f0:	73 e0       	ldi	r23, 0x03	; 3
 4f2:	80 91 7d 03 	lds	r24, 0x037D	; 0x80037d <pot3>
 4f6:	90 91 7e 03 	lds	r25, 0x037E	; 0x80037e <pot3+0x1>
 4fa:	0e 94 97 03 	call	0x72e	; 0x72e <__itoa_ncheck>
	enviarString(itoa(pot3, buffer, 10));
 4fe:	0e 94 83 00 	call	0x106	; 0x106 <enviarString>
	enviarString("\r\nPot 4: ");
 502:	85 ef       	ldi	r24, 0xF5	; 245
 504:	92 e0       	ldi	r25, 0x02	; 2
 506:	0e 94 83 00 	call	0x106	; 0x106 <enviarString>
 50a:	4a e0       	ldi	r20, 0x0A	; 10
 50c:	63 e8       	ldi	r22, 0x83	; 131
 50e:	73 e0       	ldi	r23, 0x03	; 3
 510:	80 91 7b 03 	lds	r24, 0x037B	; 0x80037b <pot4>
 514:	90 91 7c 03 	lds	r25, 0x037C	; 0x80037c <pot4+0x1>
 518:	0e 94 97 03 	call	0x72e	; 0x72e <__itoa_ncheck>
	enviarString(itoa(pot4, buffer, 10));
 51c:	0e 94 83 00 	call	0x106	; 0x106 <enviarString>
	enviarString("\r\n======================\r\n");
 520:	8a ea       	ldi	r24, 0xAA	; 170
 522:	92 e0       	ldi	r25, 0x02	; 2
 524:	0e 94 83 00 	call	0x106	; 0x106 <enviarString>
	enviarString("\r\nComandos:\r\n");
 528:	8f ef       	ldi	r24, 0xFF	; 255
 52a:	92 e0       	ldi	r25, 0x02	; 2
 52c:	0e 94 83 00 	call	0x106	; 0x106 <enviarString>
	enviarString("1 - Volver a Modo Manual\r\n");
 530:	8d e0       	ldi	r24, 0x0D	; 13
 532:	93 e0       	ldi	r25, 0x03	; 3
 534:	0e 94 83 00 	call	0x106	; 0x106 <enviarString>
	enviarString("3 - Editar valor de Pot\r\n");
 538:	88 e2       	ldi	r24, 0x28	; 40
 53a:	93 e0       	ldi	r25, 0x03	; 3
 53c:	0e 94 83 00 	call	0x106	; 0x106 <enviarString>
	enviarString("\r\n");
 540:	80 e6       	ldi	r24, 0x60	; 96
 542:	92 e0       	ldi	r25, 0x02	; 2
 544:	0e 94 83 00 	call	0x106	; 0x106 <enviarString>
 548:	08 95       	ret

0000054a <main>:
void manejarComandosSerial(void);
void mostrarMenuAuto(void);
// ====================================================================
// Main Function
int main(void) {
	setup();
 54a:	0e 94 53 00 	call	0xa6	; 0xa6 <setup>
	while(1) {
		// Verificar comandos por serial
		manejarComandosSerial();
 54e:	0e 94 a0 00 	call	0x140	; 0x140 <manejarComandosSerial>
				if (Manual == 0) {
 552:	80 91 7a 03 	lds	r24, 0x037A	; 0x80037a <Manual>
 556:	81 11       	cpse	r24, r1
 558:	a5 c0       	rjmp	.+330    	; 0x6a4 <main+0x15a>
					// Loop para modo Manual (Manual = 0)
					//led que indica modo manual
					PORTD |= (1 << PD6);
 55a:	8b b1       	in	r24, 0x0b	; 11
 55c:	80 64       	ori	r24, 0x40	; 64
 55e:	8b b9       	out	0x0b, r24	; 11
					PORTD &= ~(1 << PD7); 
 560:	8b b1       	in	r24, 0x0b	; 11
 562:	8f 77       	andi	r24, 0x7F	; 127
 564:	8b b9       	out	0x0b, r24	; 11
					//para leer los pots
					PORTD |= (1 << PD2) | (1 << PD3) | (1 << PD4) | (1 << PD5);
 566:	8b b1       	in	r24, 0x0b	; 11
 568:	8c 63       	ori	r24, 0x3C	; 60
 56a:	8b b9       	out	0x0b, r24	; 11
					uint16_t pot1 = (leerADC(4)/10);  
 56c:	84 e0       	ldi	r24, 0x04	; 4
 56e:	0e 94 67 00 	call	0xce	; 0xce <leerADC>
 572:	9c 01       	movw	r18, r24
 574:	ad ec       	ldi	r26, 0xCD	; 205
 576:	bc ec       	ldi	r27, 0xCC	; 204
 578:	0e 94 6a 03 	call	0x6d4	; 0x6d4 <__umulhisi3>
 57c:	8c 01       	movw	r16, r24
 57e:	16 95       	lsr	r17
 580:	07 95       	ror	r16
 582:	16 95       	lsr	r17
 584:	07 95       	ror	r16
 586:	16 95       	lsr	r17
 588:	07 95       	ror	r16
					// Leer pot 2
					uint16_t pot2 = (leerADC(5)/10);  
 58a:	85 e0       	ldi	r24, 0x05	; 5
 58c:	0e 94 67 00 	call	0xce	; 0xce <leerADC>
 590:	9c 01       	movw	r18, r24
 592:	ad ec       	ldi	r26, 0xCD	; 205
 594:	bc ec       	ldi	r27, 0xCC	; 204
 596:	0e 94 6a 03 	call	0x6d4	; 0x6d4 <__umulhisi3>
 59a:	7c 01       	movw	r14, r24
 59c:	f6 94       	lsr	r15
 59e:	e7 94       	ror	r14
 5a0:	f6 94       	lsr	r15
 5a2:	e7 94       	ror	r14
 5a4:	f6 94       	lsr	r15
 5a6:	e7 94       	ror	r14
					// Leer pot 3
					uint16_t pot3 = (leerADC(6)/10); 
 5a8:	86 e0       	ldi	r24, 0x06	; 6
 5aa:	0e 94 67 00 	call	0xce	; 0xce <leerADC>
 5ae:	9c 01       	movw	r18, r24
 5b0:	ad ec       	ldi	r26, 0xCD	; 205
 5b2:	bc ec       	ldi	r27, 0xCC	; 204
 5b4:	0e 94 6a 03 	call	0x6d4	; 0x6d4 <__umulhisi3>
 5b8:	6c 01       	movw	r12, r24
 5ba:	d6 94       	lsr	r13
 5bc:	c7 94       	ror	r12
 5be:	d6 94       	lsr	r13
 5c0:	c7 94       	ror	r12
 5c2:	d6 94       	lsr	r13
 5c4:	c7 94       	ror	r12
					// Leer pot 4
					uint16_t pot4 = (leerADC(7)/10);  
 5c6:	87 e0       	ldi	r24, 0x07	; 7
 5c8:	0e 94 67 00 	call	0xce	; 0xce <leerADC>
 5cc:	9c 01       	movw	r18, r24
 5ce:	ad ec       	ldi	r26, 0xCD	; 205
 5d0:	bc ec       	ldi	r27, 0xCC	; 204
 5d2:	0e 94 6a 03 	call	0x6d4	; 0x6d4 <__umulhisi3>
 5d6:	ec 01       	movw	r28, r24
 5d8:	d6 95       	lsr	r29
 5da:	c7 95       	ror	r28
 5dc:	d6 95       	lsr	r29
 5de:	c7 95       	ror	r28
 5e0:	d6 95       	lsr	r29
 5e2:	c7 95       	ror	r28
	#else
		//round up by default
		__ticks_dc = (uint32_t)(ceil(fabs(__tmp)));
	#endif

	__builtin_avr_delay_cycles(__ticks_dc);
 5e4:	8f e3       	ldi	r24, 0x3F	; 63
 5e6:	9c e9       	ldi	r25, 0x9C	; 156
 5e8:	01 97       	sbiw	r24, 0x01	; 1
 5ea:	f1 f7       	brne	.-4      	; 0x5e8 <main+0x9e>
 5ec:	00 c0       	rjmp	.+0      	; 0x5ee <main+0xa4>
 5ee:	00 00       	nop
					
					_delay_ms(10);
					
					if (Terminal == 0) {
 5f0:	80 91 78 03 	lds	r24, 0x0378	; 0x800378 <Terminal>
 5f4:	90 91 79 03 	lds	r25, 0x0379	; 0x800379 <Terminal+0x1>
 5f8:	00 97       	sbiw	r24, 0x00	; 0
 5fa:	09 f0       	breq	.+2      	; 0x5fe <main+0xb4>
 5fc:	4d c0       	rjmp	.+154    	; 0x698 <main+0x14e>
						limpiarTerminal();
 5fe:	0e 94 90 00 	call	0x120	; 0x120 <limpiarTerminal>
						enviarString("\r\n======================\r\n");
 602:	8a ea       	ldi	r24, 0xAA	; 170
 604:	92 e0       	ldi	r25, 0x02	; 2
 606:	0e 94 83 00 	call	0x106	; 0x106 <enviarString>
						enviarString("\r\nModo Manual\r\n");
 60a:	82 e4       	ldi	r24, 0x42	; 66
 60c:	93 e0       	ldi	r25, 0x03	; 3
 60e:	0e 94 83 00 	call	0x106	; 0x106 <enviarString>
						enviarString("\r\n======================\r\n");
 612:	8a ea       	ldi	r24, 0xAA	; 170
 614:	92 e0       	ldi	r25, 0x02	; 2
 616:	0e 94 83 00 	call	0x106	; 0x106 <enviarString>
						enviarString("Pot 1: ");
 61a:	89 ed       	ldi	r24, 0xD9	; 217
 61c:	92 e0       	ldi	r25, 0x02	; 2
 61e:	0e 94 83 00 	call	0x106	; 0x106 <enviarString>
 622:	4a e0       	ldi	r20, 0x0A	; 10
 624:	63 e8       	ldi	r22, 0x83	; 131
 626:	73 e0       	ldi	r23, 0x03	; 3
 628:	c8 01       	movw	r24, r16
 62a:	0e 94 97 03 	call	0x72e	; 0x72e <__itoa_ncheck>
						enviarString(itoa(pot1, buffer, 10));
 62e:	0e 94 83 00 	call	0x106	; 0x106 <enviarString>
						enviarString("\r\nPot 2: ");
 632:	81 ee       	ldi	r24, 0xE1	; 225
 634:	92 e0       	ldi	r25, 0x02	; 2
 636:	0e 94 83 00 	call	0x106	; 0x106 <enviarString>
 63a:	4a e0       	ldi	r20, 0x0A	; 10
 63c:	63 e8       	ldi	r22, 0x83	; 131
 63e:	73 e0       	ldi	r23, 0x03	; 3
 640:	c7 01       	movw	r24, r14
 642:	0e 94 97 03 	call	0x72e	; 0x72e <__itoa_ncheck>
						enviarString(itoa(pot2, buffer, 10));
 646:	0e 94 83 00 	call	0x106	; 0x106 <enviarString>
						enviarString("\r\nPot 3: ");
 64a:	8b ee       	ldi	r24, 0xEB	; 235
 64c:	92 e0       	ldi	r25, 0x02	; 2
 64e:	0e 94 83 00 	call	0x106	; 0x106 <enviarString>
 652:	4a e0       	ldi	r20, 0x0A	; 10
 654:	63 e8       	ldi	r22, 0x83	; 131
 656:	73 e0       	ldi	r23, 0x03	; 3
 658:	c6 01       	movw	r24, r12
 65a:	0e 94 97 03 	call	0x72e	; 0x72e <__itoa_ncheck>
						enviarString(itoa(pot3, buffer, 10));
 65e:	0e 94 83 00 	call	0x106	; 0x106 <enviarString>
						enviarString("\r\nPot 4: ");
 662:	85 ef       	ldi	r24, 0xF5	; 245
 664:	92 e0       	ldi	r25, 0x02	; 2
 666:	0e 94 83 00 	call	0x106	; 0x106 <enviarString>
 66a:	4a e0       	ldi	r20, 0x0A	; 10
 66c:	63 e8       	ldi	r22, 0x83	; 131
 66e:	73 e0       	ldi	r23, 0x03	; 3
 670:	ce 01       	movw	r24, r28
 672:	0e 94 97 03 	call	0x72e	; 0x72e <__itoa_ncheck>
						enviarString(itoa(pot4, buffer, 10));
 676:	0e 94 83 00 	call	0x106	; 0x106 <enviarString>
						enviarString("\r\n======================\r\n");
 67a:	8a ea       	ldi	r24, 0xAA	; 170
 67c:	92 e0       	ldi	r25, 0x02	; 2
 67e:	0e 94 83 00 	call	0x106	; 0x106 <enviarString>
						enviarString("\r\nPress 2 para cambiar de modo\r\n");
 682:	82 e5       	ldi	r24, 0x52	; 82
 684:	93 e0       	ldi	r25, 0x03	; 3
 686:	0e 94 83 00 	call	0x106	; 0x106 <enviarString>
						Terminal = 100;
 68a:	84 e6       	ldi	r24, 0x64	; 100
 68c:	90 e0       	ldi	r25, 0x00	; 0
 68e:	90 93 79 03 	sts	0x0379, r25	; 0x800379 <Terminal+0x1>
 692:	80 93 78 03 	sts	0x0378, r24	; 0x800378 <Terminal>
 696:	5b cf       	rjmp	.-330    	; 0x54e <main+0x4>
					}
					else { Terminal--;}
 698:	01 97       	sbiw	r24, 0x01	; 1
 69a:	90 93 79 03 	sts	0x0379, r25	; 0x800379 <Terminal+0x1>
 69e:	80 93 78 03 	sts	0x0378, r24	; 0x800378 <Terminal>
 6a2:	55 cf       	rjmp	.-342    	; 0x54e <main+0x4>
				}
				else {
					// Loop para modo Automatico (Manual = 1)
					//indicar el modo automatico
					PORTD &= ~(1 << PD6);
 6a4:	8b b1       	in	r24, 0x0b	; 11
 6a6:	8f 7b       	andi	r24, 0xBF	; 191
 6a8:	8b b9       	out	0x0b, r24	; 11
					PORTD |= (1 << PD7);
 6aa:	8b b1       	in	r24, 0x0b	; 11
 6ac:	80 68       	ori	r24, 0x80	; 128
 6ae:	8b b9       	out	0x0b, r24	; 11
					if (Terminal == 0) {
 6b0:	80 91 78 03 	lds	r24, 0x0378	; 0x800378 <Terminal>
 6b4:	90 91 79 03 	lds	r25, 0x0379	; 0x800379 <Terminal+0x1>
 6b8:	89 2b       	or	r24, r25
 6ba:	09 f0       	breq	.+2      	; 0x6be <main+0x174>
 6bc:	48 cf       	rjmp	.-368    	; 0x54e <main+0x4>
						limpiarTerminal();
 6be:	0e 94 90 00 	call	0x120	; 0x120 <limpiarTerminal>
						 mostrarMenuAuto(); 
 6c2:	0e 94 48 02 	call	0x490	; 0x490 <mostrarMenuAuto>
						Terminal = 1;
 6c6:	81 e0       	ldi	r24, 0x01	; 1
 6c8:	90 e0       	ldi	r25, 0x00	; 0
 6ca:	90 93 79 03 	sts	0x0379, r25	; 0x800379 <Terminal+0x1>
 6ce:	80 93 78 03 	sts	0x0378, r24	; 0x800378 <Terminal>
 6d2:	3d cf       	rjmp	.-390    	; 0x54e <main+0x4>

000006d4 <__umulhisi3>:
 6d4:	a2 9f       	mul	r26, r18
 6d6:	b0 01       	movw	r22, r0
 6d8:	b3 9f       	mul	r27, r19
 6da:	c0 01       	movw	r24, r0
 6dc:	a3 9f       	mul	r26, r19
 6de:	70 0d       	add	r23, r0
 6e0:	81 1d       	adc	r24, r1
 6e2:	11 24       	eor	r1, r1
 6e4:	91 1d       	adc	r25, r1
 6e6:	b2 9f       	mul	r27, r18
 6e8:	70 0d       	add	r23, r0
 6ea:	81 1d       	adc	r24, r1
 6ec:	11 24       	eor	r1, r1
 6ee:	91 1d       	adc	r25, r1
 6f0:	08 95       	ret

000006f2 <atoi>:
 6f2:	fc 01       	movw	r30, r24
 6f4:	88 27       	eor	r24, r24
 6f6:	99 27       	eor	r25, r25
 6f8:	e8 94       	clt
 6fa:	21 91       	ld	r18, Z+
 6fc:	20 32       	cpi	r18, 0x20	; 32
 6fe:	e9 f3       	breq	.-6      	; 0x6fa <atoi+0x8>
 700:	29 30       	cpi	r18, 0x09	; 9
 702:	10 f0       	brcs	.+4      	; 0x708 <atoi+0x16>
 704:	2e 30       	cpi	r18, 0x0E	; 14
 706:	c8 f3       	brcs	.-14     	; 0x6fa <atoi+0x8>
 708:	2b 32       	cpi	r18, 0x2B	; 43
 70a:	41 f0       	breq	.+16     	; 0x71c <atoi+0x2a>
 70c:	2d 32       	cpi	r18, 0x2D	; 45
 70e:	39 f4       	brne	.+14     	; 0x71e <atoi+0x2c>
 710:	68 94       	set
 712:	04 c0       	rjmp	.+8      	; 0x71c <atoi+0x2a>
 714:	0e 94 a2 03 	call	0x744	; 0x744 <__mulhi_const_10>
 718:	82 0f       	add	r24, r18
 71a:	91 1d       	adc	r25, r1
 71c:	21 91       	ld	r18, Z+
 71e:	20 53       	subi	r18, 0x30	; 48
 720:	2a 30       	cpi	r18, 0x0A	; 10
 722:	c0 f3       	brcs	.-16     	; 0x714 <atoi+0x22>
 724:	1e f4       	brtc	.+6      	; 0x72c <atoi+0x3a>
 726:	90 95       	com	r25
 728:	81 95       	neg	r24
 72a:	9f 4f       	sbci	r25, 0xFF	; 255
 72c:	08 95       	ret

0000072e <__itoa_ncheck>:
 72e:	bb 27       	eor	r27, r27
 730:	4a 30       	cpi	r20, 0x0A	; 10
 732:	31 f4       	brne	.+12     	; 0x740 <__itoa_ncheck+0x12>
 734:	99 23       	and	r25, r25
 736:	22 f4       	brpl	.+8      	; 0x740 <__itoa_ncheck+0x12>
 738:	bd e2       	ldi	r27, 0x2D	; 45
 73a:	90 95       	com	r25
 73c:	81 95       	neg	r24
 73e:	9f 4f       	sbci	r25, 0xFF	; 255
 740:	0c 94 ab 03 	jmp	0x756	; 0x756 <__utoa_common>

00000744 <__mulhi_const_10>:
 744:	7a e0       	ldi	r23, 0x0A	; 10
 746:	97 9f       	mul	r25, r23
 748:	90 2d       	mov	r25, r0
 74a:	87 9f       	mul	r24, r23
 74c:	80 2d       	mov	r24, r0
 74e:	91 0d       	add	r25, r1
 750:	11 24       	eor	r1, r1
 752:	08 95       	ret

00000754 <__utoa_ncheck>:
 754:	bb 27       	eor	r27, r27

00000756 <__utoa_common>:
 756:	fb 01       	movw	r30, r22
 758:	55 27       	eor	r21, r21
 75a:	aa 27       	eor	r26, r26
 75c:	88 0f       	add	r24, r24
 75e:	99 1f       	adc	r25, r25
 760:	aa 1f       	adc	r26, r26
 762:	a4 17       	cp	r26, r20
 764:	10 f0       	brcs	.+4      	; 0x76a <__utoa_common+0x14>
 766:	a4 1b       	sub	r26, r20
 768:	83 95       	inc	r24
 76a:	50 51       	subi	r21, 0x10	; 16
 76c:	b9 f7       	brne	.-18     	; 0x75c <__utoa_common+0x6>
 76e:	a0 5d       	subi	r26, 0xD0	; 208
 770:	aa 33       	cpi	r26, 0x3A	; 58
 772:	08 f0       	brcs	.+2      	; 0x776 <__utoa_common+0x20>
 774:	a9 5d       	subi	r26, 0xD9	; 217
 776:	a1 93       	st	Z+, r26
 778:	00 97       	sbiw	r24, 0x00	; 0
 77a:	79 f7       	brne	.-34     	; 0x75a <__utoa_common+0x4>
 77c:	b1 11       	cpse	r27, r1
 77e:	b1 93       	st	Z+, r27
 780:	11 92       	st	Z+, r1
 782:	cb 01       	movw	r24, r22
 784:	0c 94 c4 03 	jmp	0x788	; 0x788 <strrev>

00000788 <strrev>:
 788:	dc 01       	movw	r26, r24
 78a:	fc 01       	movw	r30, r24
 78c:	67 2f       	mov	r22, r23
 78e:	71 91       	ld	r23, Z+
 790:	77 23       	and	r23, r23
 792:	e1 f7       	brne	.-8      	; 0x78c <strrev+0x4>
 794:	32 97       	sbiw	r30, 0x02	; 2
 796:	04 c0       	rjmp	.+8      	; 0x7a0 <strrev+0x18>
 798:	7c 91       	ld	r23, X
 79a:	6d 93       	st	X+, r22
 79c:	70 83       	st	Z, r23
 79e:	62 91       	ld	r22, -Z
 7a0:	ae 17       	cp	r26, r30
 7a2:	bf 07       	cpc	r27, r31
 7a4:	c8 f3       	brcs	.-14     	; 0x798 <strrev+0x10>
 7a6:	08 95       	ret

000007a8 <_exit>:
 7a8:	f8 94       	cli

000007aa <__stop_program>:
 7aa:	ff cf       	rjmp	.-2      	; 0x7aa <__stop_program>
